
LAB1_GPIO_Unit7.elf:     file format elf32-littlearm

Sections:
Idx Name          Size      VMA       LMA       File off  Algn
  0 .isr_vector   00000130  08000000  08000000  00010000  2**0
                  CONTENTS, ALLOC, LOAD, READONLY, DATA
  1 .text         00000238  08000130  08000130  00010130  2**2
                  CONTENTS, ALLOC, LOAD, READONLY, CODE
  2 .rodata       00000000  08000368  08000370  00010370  2**0
                  CONTENTS, ALLOC, LOAD, DATA
  3 .ARM.extab    00000000  08000368  08000368  00010370  2**0
                  CONTENTS
  4 .ARM          00000000  08000368  08000368  00010370  2**0
                  CONTENTS
  5 .preinit_array 00000000  08000368  08000370  00010370  2**0
                  CONTENTS, ALLOC, LOAD, DATA
  6 .init_array   00000004  08000368  08000368  00010368  2**2
                  CONTENTS, ALLOC, LOAD, DATA
  7 .fini_array   00000004  0800036c  0800036c  0001036c  2**2
                  CONTENTS, ALLOC, LOAD, DATA
  8 .data         00000000  20000000  20000000  00010370  2**0
                  CONTENTS, ALLOC, LOAD, DATA
  9 .bss          0000001c  20000000  08000370  00020000  2**2
                  ALLOC
 10 ._user_heap_stack 00000604  2000001c  08000370  0002001c  2**0
                  ALLOC
 11 .ARM.attributes 00000029  00000000  00000000  00010370  2**0
                  CONTENTS, READONLY
 12 .debug_info   00000148  00000000  00000000  00010399  2**0
                  CONTENTS, READONLY, DEBUGGING, OCTETS
 13 .debug_abbrev 000000c2  00000000  00000000  000104e1  2**0
                  CONTENTS, READONLY, DEBUGGING, OCTETS
 14 .debug_loc    00000110  00000000  00000000  000105a3  2**0
                  CONTENTS, READONLY, DEBUGGING, OCTETS
 15 .debug_aranges 00000060  00000000  00000000  000106b8  2**3
                  CONTENTS, READONLY, DEBUGGING, OCTETS
 16 .debug_ranges 00000048  00000000  00000000  00010718  2**3
                  CONTENTS, READONLY, DEBUGGING, OCTETS
 17 .debug_macro  00001db1  00000000  00000000  00010760  2**0
                  CONTENTS, READONLY, DEBUGGING, OCTETS
 18 .debug_line   000006c8  00000000  00000000  00012511  2**0
                  CONTENTS, READONLY, DEBUGGING, OCTETS
 19 .debug_str    00007e79  00000000  00000000  00012bd9  2**0
                  CONTENTS, READONLY, DEBUGGING, OCTETS
 20 .comment      00000050  00000000  00000000  0001aa52  2**0
                  CONTENTS, READONLY
 21 .debug_frame  000000c0  00000000  00000000  0001aaa4  2**2
                  CONTENTS, READONLY, DEBUGGING, OCTETS

Disassembly of section .text:

08000130 <__do_global_dtors_aux>:
 8000130:	b510      	push	{r4, lr}
 8000132:	4c05      	ldr	r4, [pc, #20]	; (8000148 <__do_global_dtors_aux+0x18>)
 8000134:	7823      	ldrb	r3, [r4, #0]
 8000136:	b933      	cbnz	r3, 8000146 <__do_global_dtors_aux+0x16>
 8000138:	4b04      	ldr	r3, [pc, #16]	; (800014c <__do_global_dtors_aux+0x1c>)
 800013a:	b113      	cbz	r3, 8000142 <__do_global_dtors_aux+0x12>
 800013c:	4804      	ldr	r0, [pc, #16]	; (8000150 <__do_global_dtors_aux+0x20>)
 800013e:	f3af 8000 	nop.w
 8000142:	2301      	movs	r3, #1
 8000144:	7023      	strb	r3, [r4, #0]
 8000146:	bd10      	pop	{r4, pc}
 8000148:	20000000 	.word	0x20000000
 800014c:	00000000 	.word	0x00000000
 8000150:	08000350 	.word	0x08000350

08000154 <frame_dummy>:
 8000154:	b508      	push	{r3, lr}
 8000156:	4b03      	ldr	r3, [pc, #12]	; (8000164 <frame_dummy+0x10>)
 8000158:	b11b      	cbz	r3, 8000162 <frame_dummy+0xe>
 800015a:	4903      	ldr	r1, [pc, #12]	; (8000168 <frame_dummy+0x14>)
 800015c:	4803      	ldr	r0, [pc, #12]	; (800016c <frame_dummy+0x18>)
 800015e:	f3af 8000 	nop.w
 8000162:	bd08      	pop	{r3, pc}
 8000164:	00000000 	.word	0x00000000
 8000168:	20000004 	.word	0x20000004
 800016c:	08000350 	.word	0x08000350

08000170 <clock_init>:
#define RCC_CFGR		*(volatile uint32_t *)(RCC_BASE + 0x04)
#define RCC_CR			*(volatile uint32_t *)(RCC_BASE + 0x00)


void clock_init()
{
 8000170:	b480      	push	{r7}
 8000172:	af00      	add	r7, sp, #0
	//Enable port A clock
	RCC_APB2ENR |= RCC_IOPAEN;
 8000174:	4b07      	ldr	r3, [pc, #28]	; (8000194 <clock_init+0x24>)
 8000176:	681b      	ldr	r3, [r3, #0]
 8000178:	4a06      	ldr	r2, [pc, #24]	; (8000194 <clock_init+0x24>)
 800017a:	f043 0304 	orr.w	r3, r3, #4
 800017e:	6013      	str	r3, [r2, #0]
	//Enable port B clock
	RCC_APB2ENR |= (1<<3);
 8000180:	4b04      	ldr	r3, [pc, #16]	; (8000194 <clock_init+0x24>)
 8000182:	681b      	ldr	r3, [r3, #0]
 8000184:	4a03      	ldr	r2, [pc, #12]	; (8000194 <clock_init+0x24>)
 8000186:	f043 0308 	orr.w	r3, r3, #8
 800018a:	6013      	str	r3, [r2, #0]
}
 800018c:	bf00      	nop
 800018e:	46bd      	mov	sp, r7
 8000190:	bc80      	pop	{r7}
 8000192:	4770      	bx	lr
 8000194:	40021018 	.word	0x40021018

08000198 <GPIO_init>:
//PORTB pins 1,13 output---PORTA pin1,13 input
void GPIO_init(){
 8000198:	b480      	push	{r7}
 800019a:	af00      	add	r7, sp, #0
	//put reset value
	GPIOA_CRL = 0;
 800019c:	4b1f      	ldr	r3, [pc, #124]	; (800021c <GPIO_init+0x84>)
 800019e:	2200      	movs	r2, #0
 80001a0:	601a      	str	r2, [r3, #0]
	GPIOA_CRH = 0;
 80001a2:	4b1f      	ldr	r3, [pc, #124]	; (8000220 <GPIO_init+0x88>)
 80001a4:	2200      	movs	r2, #0
 80001a6:	601a      	str	r2, [r3, #0]
	GPIOA_IDR =0;
 80001a8:	4b1e      	ldr	r3, [pc, #120]	; (8000224 <GPIO_init+0x8c>)
 80001aa:	2200      	movs	r2, #0
 80001ac:	601a      	str	r2, [r3, #0]
	GPIOB_CRL = 0;
 80001ae:	4b1b      	ldr	r3, [pc, #108]	; (800021c <GPIO_init+0x84>)
 80001b0:	2200      	movs	r2, #0
 80001b2:	601a      	str	r2, [r3, #0]
	GPIOB_CRH = 0;
 80001b4:	4b1a      	ldr	r3, [pc, #104]	; (8000220 <GPIO_init+0x88>)
 80001b6:	2200      	movs	r2, #0
 80001b8:	601a      	str	r2, [r3, #0]
	GPIOB_ODR =0;
 80001ba:	4b1b      	ldr	r3, [pc, #108]	; (8000228 <GPIO_init+0x90>)
 80001bc:	2200      	movs	r2, #0
 80001be:	601a      	str	r2, [r3, #0]
	//PORTA pins 1,13 ===> input mode ,floating input
	// PORTA pin 1 ===>00: input mode ===>01: Floating input (reset state)
	GPIOA_CRL |= (0b01<<6);
 80001c0:	4b16      	ldr	r3, [pc, #88]	; (800021c <GPIO_init+0x84>)
 80001c2:	681b      	ldr	r3, [r3, #0]
 80001c4:	4a15      	ldr	r2, [pc, #84]	; (800021c <GPIO_init+0x84>)
 80001c6:	f043 0340 	orr.w	r3, r3, #64	; 0x40
 80001ca:	6013      	str	r3, [r2, #0]
	// PORTA pin 13 ===>00: input mode ===>01: Floating input (reset state)
	GPIOA_CRH &= ~(0b11<<20);
 80001cc:	4b14      	ldr	r3, [pc, #80]	; (8000220 <GPIO_init+0x88>)
 80001ce:	681b      	ldr	r3, [r3, #0]
 80001d0:	4a13      	ldr	r2, [pc, #76]	; (8000220 <GPIO_init+0x88>)
 80001d2:	f423 1340 	bic.w	r3, r3, #3145728	; 0x300000
 80001d6:	6013      	str	r3, [r2, #0]
	GPIOA_CRH |= (0b01<<22);
 80001d8:	4b11      	ldr	r3, [pc, #68]	; (8000220 <GPIO_init+0x88>)
 80001da:	681b      	ldr	r3, [r3, #0]
 80001dc:	4a10      	ldr	r2, [pc, #64]	; (8000220 <GPIO_init+0x88>)
 80001de:	f443 0380 	orr.w	r3, r3, #4194304	; 0x400000
 80001e2:	6013      	str	r3, [r2, #0]
	//==========================
	//PORTB pins 1,13
	//PORTB pin1 ===>01: Output mode, max speed 10 MHz.===>00: General purpose output push-pull
	GPIOB_CRL |= (0b01<<4);
 80001e4:	4b0d      	ldr	r3, [pc, #52]	; (800021c <GPIO_init+0x84>)
 80001e6:	681b      	ldr	r3, [r3, #0]
 80001e8:	4a0c      	ldr	r2, [pc, #48]	; (800021c <GPIO_init+0x84>)
 80001ea:	f043 0310 	orr.w	r3, r3, #16
 80001ee:	6013      	str	r3, [r2, #0]
	GPIOB_CRL &= ~(0b11<<6);
 80001f0:	4b0a      	ldr	r3, [pc, #40]	; (800021c <GPIO_init+0x84>)
 80001f2:	681b      	ldr	r3, [r3, #0]
 80001f4:	4a09      	ldr	r2, [pc, #36]	; (800021c <GPIO_init+0x84>)
 80001f6:	f023 03c0 	bic.w	r3, r3, #192	; 0xc0
 80001fa:	6013      	str	r3, [r2, #0]
	//PORTB pin13 ===>01: Output mode, max speed 10 MHz.===>00: General purpose output push-pull
	GPIOB_CRH |= (0b01<<20);
 80001fc:	4b08      	ldr	r3, [pc, #32]	; (8000220 <GPIO_init+0x88>)
 80001fe:	681b      	ldr	r3, [r3, #0]
 8000200:	4a07      	ldr	r2, [pc, #28]	; (8000220 <GPIO_init+0x88>)
 8000202:	f443 1380 	orr.w	r3, r3, #1048576	; 0x100000
 8000206:	6013      	str	r3, [r2, #0]
	GPIOB_CRH &= ~(0b11<<22);
 8000208:	4b05      	ldr	r3, [pc, #20]	; (8000220 <GPIO_init+0x88>)
 800020a:	681b      	ldr	r3, [r3, #0]
 800020c:	4a04      	ldr	r2, [pc, #16]	; (8000220 <GPIO_init+0x88>)
 800020e:	f423 0340 	bic.w	r3, r3, #12582912	; 0xc00000
 8000212:	6013      	str	r3, [r2, #0]
}
 8000214:	bf00      	nop
 8000216:	46bd      	mov	sp, r7
 8000218:	bc80      	pop	{r7}
 800021a:	4770      	bx	lr
 800021c:	40010800 	.word	0x40010800
 8000220:	40010804 	.word	0x40010804
 8000224:	40010808 	.word	0x40010808
 8000228:	4001080c 	.word	0x4001080c

0800022c <wait_ms>:
void wait_ms(uint32_t time){
 800022c:	b480      	push	{r7}
 800022e:	b085      	sub	sp, #20
 8000230:	af00      	add	r7, sp, #0
 8000232:	6078      	str	r0, [r7, #4]
	uint32_t i,j;
	for(i=0;i<time;i++)
 8000234:	2300      	movs	r3, #0
 8000236:	60fb      	str	r3, [r7, #12]
 8000238:	e00b      	b.n	8000252 <wait_ms+0x26>
		for(j=0;j<255;j++);
 800023a:	2300      	movs	r3, #0
 800023c:	60bb      	str	r3, [r7, #8]
 800023e:	e002      	b.n	8000246 <wait_ms+0x1a>
 8000240:	68bb      	ldr	r3, [r7, #8]
 8000242:	3301      	adds	r3, #1
 8000244:	60bb      	str	r3, [r7, #8]
 8000246:	68bb      	ldr	r3, [r7, #8]
 8000248:	2bfe      	cmp	r3, #254	; 0xfe
 800024a:	d9f9      	bls.n	8000240 <wait_ms+0x14>
	for(i=0;i<time;i++)
 800024c:	68fb      	ldr	r3, [r7, #12]
 800024e:	3301      	adds	r3, #1
 8000250:	60fb      	str	r3, [r7, #12]
 8000252:	68fa      	ldr	r2, [r7, #12]
 8000254:	687b      	ldr	r3, [r7, #4]
 8000256:	429a      	cmp	r2, r3
 8000258:	d3ef      	bcc.n	800023a <wait_ms+0xe>
}
 800025a:	bf00      	nop
 800025c:	bf00      	nop
 800025e:	3714      	adds	r7, #20
 8000260:	46bd      	mov	sp, r7
 8000262:	bc80      	pop	{r7}
 8000264:	4770      	bx	lr
	...

08000268 <main>:

int main(void)
{
 8000268:	b580      	push	{r7, lr}
 800026a:	af00      	add	r7, sp, #0
	clock_init();
 800026c:	f7ff ff80 	bl	8000170 <clock_init>
	GPIO_init();
 8000270:	f7ff ff92 	bl	8000198 <GPIO_init>
	while(1){
		if((GPIOA_IDR & (1<<1) >>1) ==0 ){
 8000274:	4b0d      	ldr	r3, [pc, #52]	; (80002ac <main+0x44>)
 8000276:	681b      	ldr	r3, [r3, #0]
 8000278:	f003 0301 	and.w	r3, r3, #1
 800027c:	2b00      	cmp	r3, #0
 800027e:	d105      	bne.n	800028c <main+0x24>
			GPIOB_ODR ^= 1<<1;
 8000280:	4b0b      	ldr	r3, [pc, #44]	; (80002b0 <main+0x48>)
 8000282:	681b      	ldr	r3, [r3, #0]
 8000284:	4a0a      	ldr	r2, [pc, #40]	; (80002b0 <main+0x48>)
 8000286:	f083 0302 	eor.w	r3, r3, #2
 800028a:	6013      	str	r3, [r2, #0]
			//while((GPIOA_IDR & (1<<1) >>1) ==0);//single pressing
		}
		if((GPIOA_IDR & (1<<13) >>13) ==1){
 800028c:	4b07      	ldr	r3, [pc, #28]	; (80002ac <main+0x44>)
 800028e:	681b      	ldr	r3, [r3, #0]
 8000290:	f003 0301 	and.w	r3, r3, #1
 8000294:	2b01      	cmp	r3, #1
 8000296:	d105      	bne.n	80002a4 <main+0x3c>
			GPIOB_ODR ^= 1<<13;
 8000298:	4b05      	ldr	r3, [pc, #20]	; (80002b0 <main+0x48>)
 800029a:	681b      	ldr	r3, [r3, #0]
 800029c:	4a04      	ldr	r2, [pc, #16]	; (80002b0 <main+0x48>)
 800029e:	f483 5300 	eor.w	r3, r3, #8192	; 0x2000
 80002a2:	6013      	str	r3, [r2, #0]
		}
		wait_ms(1);
 80002a4:	2001      	movs	r0, #1
 80002a6:	f7ff ffc1 	bl	800022c <wait_ms>
		if((GPIOA_IDR & (1<<1) >>1) ==0 ){
 80002aa:	e7e3      	b.n	8000274 <main+0xc>
 80002ac:	40010808 	.word	0x40010808
 80002b0:	4001080c 	.word	0x4001080c

080002b4 <Reset_Handler>:
 80002b4:	480d      	ldr	r0, [pc, #52]	; (80002ec <LoopForever+0x2>)
 80002b6:	4685      	mov	sp, r0
 80002b8:	f3af 8000 	nop.w
 80002bc:	480c      	ldr	r0, [pc, #48]	; (80002f0 <LoopForever+0x6>)
 80002be:	490d      	ldr	r1, [pc, #52]	; (80002f4 <LoopForever+0xa>)
 80002c0:	4a0d      	ldr	r2, [pc, #52]	; (80002f8 <LoopForever+0xe>)
 80002c2:	2300      	movs	r3, #0
 80002c4:	e002      	b.n	80002cc <LoopCopyDataInit>

080002c6 <CopyDataInit>:
 80002c6:	58d4      	ldr	r4, [r2, r3]
 80002c8:	50c4      	str	r4, [r0, r3]
 80002ca:	3304      	adds	r3, #4

080002cc <LoopCopyDataInit>:
 80002cc:	18c4      	adds	r4, r0, r3
 80002ce:	428c      	cmp	r4, r1
 80002d0:	d3f9      	bcc.n	80002c6 <CopyDataInit>
 80002d2:	4a0a      	ldr	r2, [pc, #40]	; (80002fc <LoopForever+0x12>)
 80002d4:	4c0a      	ldr	r4, [pc, #40]	; (8000300 <LoopForever+0x16>)
 80002d6:	2300      	movs	r3, #0
 80002d8:	e001      	b.n	80002de <LoopFillZerobss>

080002da <FillZerobss>:
 80002da:	6013      	str	r3, [r2, #0]
 80002dc:	3204      	adds	r2, #4

080002de <LoopFillZerobss>:
 80002de:	42a2      	cmp	r2, r4
 80002e0:	d3fb      	bcc.n	80002da <FillZerobss>
 80002e2:	f000 f811 	bl	8000308 <__libc_init_array>
 80002e6:	f7ff ffbf 	bl	8000268 <main>

080002ea <LoopForever>:
 80002ea:	e7fe      	b.n	80002ea <LoopForever>
 80002ec:	20002800 	.word	0x20002800
 80002f0:	20000000 	.word	0x20000000
 80002f4:	20000000 	.word	0x20000000
 80002f8:	08000370 	.word	0x08000370
 80002fc:	20000000 	.word	0x20000000
 8000300:	2000001c 	.word	0x2000001c

08000304 <ADC1_2_IRQHandler>:
 8000304:	e7fe      	b.n	8000304 <ADC1_2_IRQHandler>
	...

08000308 <__libc_init_array>:
 8000308:	b570      	push	{r4, r5, r6, lr}
 800030a:	2600      	movs	r6, #0
 800030c:	4d0c      	ldr	r5, [pc, #48]	; (8000340 <__libc_init_array+0x38>)
 800030e:	4c0d      	ldr	r4, [pc, #52]	; (8000344 <__libc_init_array+0x3c>)
 8000310:	1b64      	subs	r4, r4, r5
 8000312:	10a4      	asrs	r4, r4, #2
 8000314:	42a6      	cmp	r6, r4
 8000316:	d109      	bne.n	800032c <__libc_init_array+0x24>
 8000318:	f000 f81a 	bl	8000350 <_init>
 800031c:	2600      	movs	r6, #0
 800031e:	4d0a      	ldr	r5, [pc, #40]	; (8000348 <__libc_init_array+0x40>)
 8000320:	4c0a      	ldr	r4, [pc, #40]	; (800034c <__libc_init_array+0x44>)
 8000322:	1b64      	subs	r4, r4, r5
 8000324:	10a4      	asrs	r4, r4, #2
 8000326:	42a6      	cmp	r6, r4
 8000328:	d105      	bne.n	8000336 <__libc_init_array+0x2e>
 800032a:	bd70      	pop	{r4, r5, r6, pc}
 800032c:	f855 3b04 	ldr.w	r3, [r5], #4
 8000330:	4798      	blx	r3
 8000332:	3601      	adds	r6, #1
 8000334:	e7ee      	b.n	8000314 <__libc_init_array+0xc>
 8000336:	f855 3b04 	ldr.w	r3, [r5], #4
 800033a:	4798      	blx	r3
 800033c:	3601      	adds	r6, #1
 800033e:	e7f2      	b.n	8000326 <__libc_init_array+0x1e>
 8000340:	08000368 	.word	0x08000368
 8000344:	08000368 	.word	0x08000368
 8000348:	08000368 	.word	0x08000368
 800034c:	0800036c 	.word	0x0800036c

08000350 <_init>:
 8000350:	b5f8      	push	{r3, r4, r5, r6, r7, lr}
 8000352:	bf00      	nop
 8000354:	bcf8      	pop	{r3, r4, r5, r6, r7}
 8000356:	bc08      	pop	{r3}
 8000358:	469e      	mov	lr, r3
 800035a:	4770      	bx	lr

0800035c <_fini>:
 800035c:	b5f8      	push	{r3, r4, r5, r6, r7, lr}
 800035e:	bf00      	nop
 8000360:	bcf8      	pop	{r3, r4, r5, r6, r7}
 8000362:	bc08      	pop	{r3}
 8000364:	469e      	mov	lr, r3
 8000366:	4770      	bx	lr
